; Function Attrs: mustprogress uwtable
define noundef zeroext i1 @_ZN6google8protobuf11MessageLite37ParsePartialFromBoundedZeroCopyStreamEPNS0_2io19ZeroCopyInputStreamEi(ptr noundef nonnull align 8 dereferenceable(16) %this, ptr noundef %input, i32 noundef %size) local_unnamed_addr #3 align 2 {
entry:
  %vtable.i = load ptr, ptr %this, align 8
  %vfn.i = getelementptr inbounds i8, ptr %vtable.i, i64 24
  %0 = load ptr, ptr %vfn.i, align 8
  tail call void %0(ptr noundef nonnull align 8 dereferenceable(16) %this)
  %call.i = tail call noundef zeroext i1 @_ZN6google8protobuf8internal13MergeFromImplILb0EEEbNS1_11BoundedZCISEPNS0_11MessageLiteENS4_10ParseFlagsE(ptr %input, i32 %size, ptr noundef nonnull %this, i32 noundef 3)
  ret i1 %call.i
}